c__builtin__
set
p0
((I1
I2
I3
I4
I5
I6
I7
I8
I9
I10
I11
I12
I13
I14
I15
I16
I17
I18
I19
I20
I21
I22
I23
I24
I25
I26
I27
I28
I29
I30
I31
I32
I33
I34
I35
I36
I37
I38
I39
I40
I41
I42
I43
I44
I45
I46
I47
I48
I49
I50
I51
I52
I53
I54
I55
I56
I57
I58
I59
I60
I61
I62
I63
I64
I65
I66
I67
I68
I69
I70
I71
I72
I73
I74
I75
I76
I77
I78
I79
I80
I81
I82
I83
I84
I85
I86
I87
I88
I89
I90
I91
I92
I93
I94
I95
I96
I97
I98
I99
I100
I101
I102
I103
I104
I105
I106
I107
I108
I109
I110
I111
I112
I113
I114
I115
I116
I117
I118
I119
I120
I121
I122
I123
I124
I125
I126
I127
I128
I129
I130
I131
I132
I133
I134
I135
I136
I137
I138
I139
I140
I141
I142
I143
I144
I145
I146
I147
I148
I149
I150
I151
I152
I153
I154
I155
I156
I157
I158
I159
I160
I161
I162
I163
I164
I165
I166
I167
I168
I169
I170
I171
I172
I173
I174
I175
I176
I177
I178
I179
I180
I181
I182
I183
I184
I185
I186
I187
I188
I189
I190
I191
I192
I193
I194
I195
I196
I197
I198
I199
I200
I201
I202
I203
I204
I205
I206
I207
I208
I209
I210
I211
I212
I213
I214
I215
I216
I217
I218
I219
I220
I221
I222
I223
I224
I225
I226
I227
I228
I229
I230
I231
I232
I233
I234
I235
I236
I237
I238
I239
I240
I241
I242
I243
I244
I245
I246
I247
I248
I249
I250
I251
I252
I253
I254
I255
I256
I257
I258
I259
I260
I261
I262
I263
I264
I265
I266
I267
I268
I269
I270
I271
I272
I273
I274
I275
I276
I277
I278
I279
I280
I281
I282
I283
I284
I285
I286
I287
I288
I289
I290
I291
I292
I293
I294
I295
I296
I297
I298
I299
I300
I301
I302
I303
I304
I305
I306
I307
I308
I309
I310
I311
I312
I313
I314
I315
I316
I317
I318
I319
I320
I321
I322
I323
I324
I325
I326
I327
I328
I329
I330
I331
I332
I333
I334
I335
I336
I337
I338
I339
I340
I341
I342
I343
I344
I345
I346
I347
I348
I349
I350
I351
I352
I353
I354
I355
I356
I357
I358
I359
I360
I361
I362
I363
I364
I365
I366
I367
I368
I369
I370
I371
I372
I373
I374
I375
I376
I377
I378
I379
I380
I381
I382
I383
I384
I385
I386
I387
I388
I389
I390
I391
I392
I393
I394
I395
I396
I397
I398
I399
I400
I401
I402
I403
I404
I405
I406
I407
I408
I409
I410
I411
I412
I413
I414
I415
I416
I417
I418
I419
I420
I421
I422
I423
I424
I425
I426
I427
I428
I429
I430
I431
I432
I433
I434
I435
I436
I437
I438
I439
I440
I441
I442
I443
I444
I445
I446
I447
I448
I449
I450
I451
I452
I453
I454
I455
I456
I457
I458
I459
I460
I461
I462
I463
I464
I465
I466
I467
I468
I469
I470
I471
I472
I473
I474
I475
I476
I477
I478
I479
I480
I481
I482
I483
I484
I485
I486
I487
I488
I489
I490
I491
I492
I493
I494
I495
I496
I497
I498
I499
I500
I501
I502
I503
I504
I505
I506
I507
I508
I509
I510
I511
I512
I513
I514
I515
I516
I517
I518
I519
I520
I521
I522
I523
I524
I525
I526
I527
I528
I529
I530
I531
I532
I533
I534
I535
I536
I537
I538
I539
I540
I541
I542
I543
I544
I545
I546
I547
I548
I549
I550
I551
I552
I553
I554
I555
I556
I557
I558
I559
I560
I561
I562
I563
I564
I565
I566
I567
I568
I569
I570
I571
I572
I573
I574
I575
I576
I577
I578
I579
I580
I581
I582
I583
I584
I585
I586
I587
I588
I589
I590
I591
I592
I593
I594
I595
I596
I597
I598
I599
I600
I601
I602
I603
I604
I605
I606
I607
I608
I609
I610
I611
I612
I613
I614
I615
I616
I617
I618
I619
I620
I621
I622
I623
I624
I625
I626
I627
I628
I629
I630
I631
I632
I633
I634
I635
I636
I637
I638
I639
I640
I641
I642
I643
I644
I645
I646
I647
I648
I649
I650
I651
I652
I653
I654
I655
I656
I657
I658
I659
I660
I661
I662
I663
I664
I665
I666
I667
I668
I669
I670
I671
I672
I673
I674
I675
I676
I677
I678
I679
I680
I681
I682
I683
I684
I685
I686
I687
I688
I689
I690
I691
I692
I693
I694
I695
I696
I697
I698
I699
I700
I701
I702
I703
I704
I705
I706
I707
I708
I709
I710
I711
I712
I713
I714
I715
I716
I717
I718
I719
I720
I721
I722
I723
I724
I725
I726
I727
I728
I729
I730
I731
I732
I733
I734
I735
I736
I737
I738
I739
I740
I741
I742
I743
I744
I745
I746
I747
I748
I749
I750
I751
I752
I753
I754
I755
I756
I757
I758
I759
I760
I761
I762
I763
I764
I765
I766
I767
I768
I769
I770
I771
I772
I773
I774
I775
I776
I777
I778
I779
I780
I781
I782
I783
I784
I785
I786
I787
I788
I789
I790
I791
I792
I793
I794
I795
I796
I797
I798
I799
I800
I801
I802
I803
I804
I805
I806
I807
I808
I809
I810
I811
I812
I813
I814
I815
I816
I817
I818
I819
I820
I821
I822
I823
I824
I825
I826
I827
I828
I829
I830
I831
I832
I833
I834
I835
I836
I837
I838
I839
I840
I841
I842
I843
I844
I845
I846
I847
I848
I849
I850
I851
I852
I853
I854
I855
I856
I857
I858
I859
I860
I861
I862
I863
I864
I865
I866
I867
I868
I869
I870
I871
I872
I873
I874
I875
I876
I877
I878
I879
I880
I881
I882
I883
I884
I885
I886
I887
I888
I889
I890
I891
I892
I893
I894
I895
I896
I897
I898
I899
I900
I901
I902
I903
I904
I905
I906
I907
I908
I909
I910
I911
I912
I913
I914
I915
I916
I917
I918
I919
I920
I921
I922
I923
I924
I925
I926
I927
I928
I929
I930
I931
I932
I933
I934
I935
I936
I937
I938
I939
I940
I941
I942
I943
I944
I945
I946
I947
I948
I949
I950
I951
I952
I953
I954
I955
I956
I957
I958
I959
I960
I961
I962
I963
I964
I965
I966
I967
I968
I969
I970
I971
I972
I973
I974
I975
I976
I977
I978
I979
I980
I981
I982
I983
I984
I985
I986
I987
I988
I989
I990
I991
I992
I993
I994
I995
I996
I997
I998
I999
I1000
I1001
I1002
I1003
I1004
I1005
I1006
I1007
I1008
I1009
I1010
I1011
I1012
I1013
I1014
I1015
I1016
I1017
I1018
I1019
I1020
I1021
I1022
I1023
I1024
I1025
I1026
I1027
I1028
I1029
I1030
I1031
I1032
I1033
I1034
I1035
I1036
I1037
I1038
I1039
I1040
I1041
I1042
I1043
I1044
I1045
I1046
I1047
I1048
I1049
I1050
I1051
I1052
I1053
I1054
I1055
I1056
I1057
I1058
I1059
I1060
I1061
I1062
I1063
I1064
I1065
I1066
I1067
I1068
I1069
I1070
I1071
I1072
I1073
I1074
I1075
I1076
I1077
I1078
I1079
I1080
I1081
I1082
I1083
I1084
I1085
I1086
I1087
I1088
I1089
I1090
I1091
I1092
I1093
I1094
I1095
I1096
I1097
I1098
I1099
I1100
I1101
I1102
I1103
I1104
I1105
I1106
I1107
I1108
I1109
I1110
I1111
I1112
I1113
I1114
I1115
I1116
I1117
I1118
I1119
I1120
I1121
I1122
I1123
I1124
I1125
I1126
I1127
I1128
I1129
I1130
I1131
I1132
I1133
I1134
I1135
I1136
I1137
I1138
I1139
I1140
I1141
I1142
I1143
I1144
I1145
I1146
I1147
I1148
I1149
I1150
I1151
I1152
I1153
I1154
I1155
I1156
I1157
I1158
I1159
I1160
I1161
I1162
I1163
I1164
I1165
I1166
I1167
I1168
I1169
I1170
I1171
I1172
I1173
I1174
I1175
I1176
I1177
I1178
I1179
I1180
I1181
I1182
I1183
I1184
I1185
I1186
I1187
I1188
I1189
I1190
I1191
I1192
I1193
I1194
I1195
I1196
I1197
I1198
I1199
I1200
I1201
I1202
I1203
I1204
I1205
I1206
I1207
I1208
I1209
I1210
I1211
I1212
I1213
I1214
I1215
I1216
I1217
I1218
I1219
I1220
I1221
I1222
I1223
I1224
I1225
I1226
I1227
I1228
I1229
I1230
I1231
I1232
I1233
I1234
I1235
I1236
I1237
I1238
I1239
I1240
I1241
I1242
I1243
I1244
I1245
I1246
I1247
I1248
I1249
I1250
I1251
I1252
I1253
I1254
I1255
I1256
I1257
I1258
I1259
I1260
I1261
I1262
I1263
I1264
I1265
I1266
I1267
I1268
I1269
I1270
I1271
I1272
I1273
I1274
I1275
I1276
I1277
I1278
I1279
I1280
I1281
I1282
I1283
I1284
I1285
I1286
I1287
I1288
I1289
I1290
I1291
I1292
I1293
I1294
I1295
I1296
I1297
I1298
I1299
I1300
I1301
I1302
I1303
I1304
I1305
I1306
I1307
I1308
I1310
I1311
I1312
I1313
I1314
I1315
I1316
I1318
I1319
I1320
I1321
I1322
I1323
I1324
I1325
I1326
I1327
I1328
I1329
I1330
I1331
I1332
I1333
I1334
I1335
I1336
I1337
I1338
I1339
I1340
I1341
I1342
I1343
I1344
I1345
I1346
I1347
I1348
I1349
I1350
I1351
I1352
I1353
I1354
I1355
I1356
I1357
I1358
I1359
I1360
I1361
I1362
I1363
I1364
I1365
I1366
I1367
I1368
I1369
I1370
I1371
I1372
I1373
I1374
I1375
I1376
I1377
I1378
I1379
I1380
I1381
I1382
I1383
I1384
I1385
I1386
I1387
I1388
I1389
I1390
I1391
I1392
I1393
I1394
I1395
I1396
I1397
I1398
I1399
I1400
I1401
I1402
I1403
I1404
I1405
I1406
I1407
I1408
I1409
I1410
I1411
I1412
I1413
I1414
I1415
I1416
I1417
I1418
I1419
I1420
I1421
I1422
I1423
I1424
I1425
I1426
I1427
I1428
I1429
I1430
I1431
I1432
I1433
I1434
I1435
I1436
I1437
I1438
I1439
I1440
I1441
I1442
I1443
I1444
I1445
I1446
I1447
I1448
I1449
I1450
I1451
I1452
I1453
I1454
I1455
I1456
I1457
I1458
I1459
I1460
I1461
I1462
I1463
I1464
I1465
I1466
I1467
I1468
I1469
I1470
I1471
I1472
I1473
I1474
I1475
I1476
I1477
I1478
I1479
I1480
I1481
I1482
I1483
I1484
I1485
I1486
I1487
I1488
I1489
I1490
I1491
I1492
I1493
I1494
I1495
I1496
I1497
I1498
I1499
I1500
I1501
I1502
I1503
I1504
I1505
I1506
I1507
I1508
I1509
I1510
I1511
I1512
I1513
I1514
I1515
I1516
I1517
I1518
I1519
I1520
I1521
I1522
I1523
I1524
I1525
I1526
I1527
I1528
I1529
I1530
I1531
I1532
I1533
I1534
I1535
I1536
I1537
I1538
I1539
I1540
I1541
I1542
I1543
I1544
I1545
I1546
I1547
I1548
I1549
I1550
I1551
I1552
I1553
I1554
I1555
I1556
I1557
I1558
I1559
I1560
I1561
I1562
I1563
I1564
I1565
I1566
I1567
I1568
I1569
I1570
I1571
I1572
I1573
I1574
I1575
I1576
I1577
I1578
I1579
I1580
I1581
I1582
I1583
I1584
I1585
I1586
I1587
I1588
I1589
I1590
I1591
I1592
I1593
I1594
I1595
I1596
I1597
I1598
I1599
I1600
I1601
I1602
I1603
I1604
I1605
I1606
I1607
I1608
I1609
I1610
I1611
I1612
I1613
I1614
I1615
I1616
I1617
I1618
I1619
I1620
I1621
I1622
I1623
I1624
I1625
I1626
I1627
I1628
I1629
I1630
I1631
I1632
I1633
I1634
I1635
I1636
I1637
I1638
I1639
I1640
I1641
I1642
I1643
I1644
I1645
I1646
I1647
I1648
I1649
I1650
I1651
I1652
I1653
I1654
I1655
I1656
I1657
I1658
I1659
I1660
I1661
I1662
I1663
I1664
I1665
I1666
I1667
I1668
I1669
I1670
I1671
I1672
I1673
I1674
I1675
I1676
I1677
I1678
I1679
I1680
I1681
I1682
I1683
I1684
I1685
I1686
I1687
I1688
I1689
I1690
I1691
I1692
I1693
I1694
I1695
I1696
I1697
I1698
I1699
I1700
I1701
I1702
I1703
I1704
I1705
I1706
I1707
I1708
I1709
I1710
I1711
I1712
I1713
I1714
I1715
I1716
I1717
I1718
I1719
I1720
I1721
I1722
I1723
I1724
I1725
I1726
I1727
I1728
I1729
I1730
I1731
I1732
I1733
I1734
I1735
I1736
I1737
I1738
I1739
I1740
I1741
I1742
I1743
I1744
I1745
I1746
I1747
I1748
I1749
I1750
I1751
I1752
I1753
I1754
I1755
I1756
I1757
I1758
I1759
I1760
I1761
I1762
I1763
I1764
I1765
I1766
I1767
I1768
I1769
I1770
I1771
I1772
I1773
I1774
I1775
I1776
I1777
I1778
I1779
I1780
I1781
I1782
I1783
I1784
I1785
I1786
I1787
I1788
I1789
I1790
I1791
I1792
I1793
I1794
I1795
I1796
I1797
I1798
I1799
I1800
I1801
I1802
I1803
I1804
I1805
I1806
I1807
I1808
I1809
I1810
I1811
I1812
I1813
I1814
I1815
I1816
I1817
I1818
I1819
I1820
I1821
I1822
I1823
I1824
I1825
I1826
I1827
I1828
I1829
I1830
I1831
I1832
I1833
I1834
I1835
I1836
I1837
I1838
I1839
I1840
I1841
I1842
I1843
I1844
I1845
I1846
I1847
I1848
I1849
I1850
I1851
I1852
I1853
I1854
I1855
I1856
I1857
I1858
I1859
I1860
I1861
I1862
I1863
I1864
I1865
I1866
I1867
I1868
I1869
I1870
I1871
I1872
I1873
I1874
I1875
I1876
I1877
I1878
I1879
I1880
I1881
I1882
I1883
I1884
I1885
I1886
I1887
I1888
I1889
I1890
I1891
I1892
I1893
I1894
I1895
I1896
I1897
I1898
I1899
I1900
I1901
I1902
I1903
I1904
I1905
I1906
I1907
I1908
I1909
I1910
I1911
I1912
I1913
I1914
I1915
I1916
I1917
I1918
I1919
I1920
I1921
I1922
I1923
I1924
I1925
I1926
I1927
I1928
I1929
I1930
I1931
I1932
I1933
I1934
I1935
I1936
I1937
I1938
I1939
I1940
I1941
I1942
I1943
I1944
I1945
I1946
I1947
I1948
I1949
I1950
I1951
I1952
I1953
I1954
I1955
I1956
I1957
I1958
I1959
I1960
I1961
I1962
I1963
I1964
I1965
I1966
I1967
I1968
I1969
I1970
I1971
I1972
I1973
I1974
I1975
I1976
I1977
I1978
I1979
I1980
I1981
I1982
I1983
I1984
I1985
I1986
I1987
I1988
I1989
I1990
I1991
I1992
I1993
I1994
I1995
I1996
I1997
I1998
I1999
I2000
I2001
I2002
I2003
I2004
I2005
I2006
I2007
I2008
I2009
I2010
I2011
I2012
I2013
I2014
I2015
I2016
I2017
I2018
I2019
I2020
I2021
I2022
I2023
I2024
I2025
I2026
I2027
I2028
I2029
I2030
I2031
I2032
I2033
I2034
I2035
I2036
I2037
I2038
I2039
I2040
I2041
I2042
I2043
I2044
I2045
I2046
I2047
I2048
I2049
I2050
I2051
I2052
I2053
I2054
I2055
I2056
I2057
I2058
I2059
I2060
I2061
I2062
I2063
I2064
I2065
I2066
I2067
I2068
I2069
I2070
I2071
I2072
I2073
I2074
I2075
I2076
I2077
I2078
I2079
I2080
I2081
I2082
I2083
I2084
I2085
I2086
I2087
I2088
I2089
I2090
I2091
I2092
I2093
I2094
I2095
I2096
I2097
I2098
I2099
I2100
I2101
I2102
I2103
I2104
I2105
I2106
I2107
I2108
I2109
I2110
I2111
I2112
I2113
I2114
I2115
I2116
I2117
I2118
I2119
I2120
I2121
I2122
I2123
I2124
I2125
I2126
I2127
I2128
I2129
I2130
I2131
I2132
I2133
I2134
I2135
I2136
I2137
I2138
I2139
I2140
I2141
I2142
I2143
I2144
I2145
I2146
I2147
I2148
I2149
I2150
I2151
I2152
I2153
I2154
I2155
I2156
I2157
I2158
I2159
I2160
I2161
I2162
I2163
I2164
I2165
I2166
I2167
I2168
I2169
I2170
I2171
I2172
I2173
I2174
I2175
I2176
I2177
I2178
I2179
I2180
I2181
I2182
I2183
I2184
I2185
I2186
I2187
I2188
I2189
I2190
I2191
I2192
I2193
I2194
I2195
I2196
I2197
I2198
I2199
I2200
I2201
I2202
I2203
I2204
I2205
I2206
I2207
I2208
I2209
I2210
I2211
I2212
I2213
I2214
I2215
I2216
I2217
I2218
I2219
I2220
I2221
I2222
I2223
I2224
I2225
I2226
I2227
I2228
I2229
I2230
I2231
I2232
I2233
I2234
I2235
I2236
I2237
I2238
I2239
I2240
I2241
I2242
I2243
I2244
I2245
I2246
I2247
I2248
I2249
I2250
I2251
I2252
I2253
I2254
I2255
I2256
I2257
I2258
I2259
I2260
I2261
I2262
I2263
I2264
I2265
I2266
I2267
I2268
I2269
I2270
I2271
I2272
I2273
I2274
I2275
I2276
I2277
I2278
I2279
I2280
I2281
I2282
I2283
I2284
I2285
I2286
I2287
I2288
I2289
I2290
I2291
I2292
I2293
I2294
I2295
I2296
I2297
I2298
I2299
I2300
I2301
I2302
I2303
I2304
I2305
I2306
I2307
I2308
I2309
I2310
I2311
I2312
I2313
I2314
I2315
I2316
I2317
I2318
I2319
I2320
I2321
I2322
I2323
I2324
I2325
I2326
I2327
I2328
I2329
I2330
I2331
I2332
I2333
I2334
I2335
I2336
I2337
I2338
I2339
I2340
I2341
I2342
I2343
I2344
I2345
I2346
I2347
I2348
I2349
I2350
I2351
I2352
I2353
I2354
I2355
I2356
I2357
I2358
I2359
I2360
I2361
I2362
I2363
I2364
I2365
I2366
I2367
I2368
I2369
I2370
I2371
I2372
I2373
I2374
I2375
I2376
I2377
I2378
I2379
I2380
I2381
I2382
I2383
I2384
I2385
I2386
I2387
I2388
I2389
I2390
I2391
I2392
I2393
I2394
I2395
I2396
I2397
I2398
I2399
I2400
I2401
I2402
I2403
I2404
I2405
I2406
I2407
I2408
I2409
I2410
I2411
I2412
I2413
I2414
I2415
I2416
I2417
I2418
I2419
I2420
I2421
I2422
I2423
I2424
I2425
I2426
I2427
I2428
I2429
I2430
I2431
I2432
I2433
I2434
I2435
I2436
I2437
I2438
I2439
I2440
I2441
I2442
I2443
I2444
I2445
I2446
I2447
I2448
I2449
I2450
I2451
I2452
I2453
I2454
I2455
I2456
I2457
I2458
I2459
I2460
I2461
I2462
I2463
I2464
I2465
I2466
I2467
I2468
I2469
I2470
I2471
I2472
I2473
I2474
I2475
I2476
I2477
I2478
I2479
I2480
I2481
I2482
I2483
I2484
I2485
I2486
I2487
I2488
I2489
I2490
I2491
I2492
I2493
I2494
I2495
I2496
I2497
I2498
I2499
I2500
I2501
I2502
I2503
I2504
I2505
I2506
I2507
I2508
I2509
I2510
I2511
I2512
I2513
I2514
I2515
I2516
I2517
I2518
I2519
I2520
I2521
I2522
I2523
I2524
I2525
I2526
I2527
I2528
I2529
I2530
I2531
I2532
I2533
I2534
I2535
I2536
I2537
I2538
I2539
I2540
I2541
I2542
I2543
I2544
I2545
I2546
I2547
I2548
I2549
I2550
I2551
I2552
I2553
I2554
I2555
I2556
I2557
I2558
I2559
I2560
I2561
I2562
I2563
I2564
I2565
I2566
I2567
I2568
I2569
I2570
I2571
I2572
I2573
I2574
I2575
I2576
I2577
I2578
I2579
I2580
I2581
I2582
I2583
I2584
I2585
I2586
I2587
I2588
I2589
I2590
I2591
I2592
I2593
I2594
I2595
I2596
I2597
I2598
I2599
I2600
I2601
I2602
I2603
I2604
I2605
I2606
I2607
I2608
I2609
I2610
I2611
I2612
I2613
I2614
I2615
I2616
I2617
I2618
I2619
I2620
I2621
I2622
I2623
I2624
I2625
I2626
I2627
I2628
I2629
I2630
I2631
I2632
I2633
I2634
I2635
I2636
I2637
I2638
I2639
I2640
I2641
I2642
I2643
I2644
I2645
I2646
I2647
I2648
I2649
I2650
I2651
I2652
I2653
I2654
I2655
I2656
I2657
I2658
I2659
I2660
I2661
I2662
I2663
I2664
I2665
I2666
I2667
I2668
I2669
I2670
I2671
I2672
I2673
I2674
I2675
I2676
I2677
I2678
I2679
I2680
I2681
I2682
I2683
I2684
I2685
I2686
I2687
I2688
I2689
I2690
I2691
I2692
I2693
I2694
I2695
I2696
I2697
I2698
I2699
I2700
I2701
I2702
I2703
I2704
I2705
I2706
I2707
I2708
I2709
I2710
I2711
I2712
I2713
I2714
I2715
I2716
I2717
I2718
I2719
I2720
I2721
I2722
I2723
I2724
I2725
I2726
I2727
I2728
I2729
I2730
I2731
I2732
I2733
I2734
I2735
I2736
I2737
I2738
I2739
I2740
I2741
I2742
I2743
I2744
I2745
I2746
I2747
I2748
I2749
I2750
I2751
I2752
I2753
I2754
I2755
I2756
I2757
I2758
I2759
I2760
I2761
I2762
I2763
I2764
I2765
I2766
I2767
I2768
I2769
I2770
I2771
I2772
I2773
I2774
I2775
I2776
I2777
I2778
I2779
I2780
I2781
I2782
I2783
I2784
I2785
I2786
I2787
I2788
I2789
I2790
I2791
I2792
I2793
I2794
I2795
I2796
I2797
I2798
I2799
I2800
I2801
I2802
I2803
I2804
I2805
I2806
I2807
I2808
I2809
I2810
I2811
I2812
I2813
I2814
I2815
I2816
I2817
I2818
I2819
I2820
I2821
I2822
I2823
I2824
I2825
I2826
I2827
I2828
I2829
I2830
I2831
I2832
I2833
I2834
I2835
I2836
I2837
I2838
I2839
I2840
I2841
I2842
I2843
I2844
I2845
I2846
I2847
I2848
I2849
I2850
I2851
I2852
I2853
I2854
I2855
I2856
I2857
I2858
I2859
I2860
I2861
I2862
I2863
I2864
I2865
I2866
I2867
I2868
I2869
I2870
I2871
I2872
I2873
I2874
I2875
I2876
I2877
I2878
I2879
I2880
I2881
I2882
I2883
I2884
I2885
I2886
I2887
I2888
I2889
I2890
I2891
I2892
I2893
I2894
I2895
I2896
I2897
I2898
I2899
I2900
I2901
I2902
I2903
I2904
I2905
I2906
I2907
I2908
I2909
I2910
I2911
I2912
I2913
I2914
I2915
I2916
I2917
I2918
I2919
I2920
I2921
I2922
I2923
I2924
I2925
I2926
I2927
I2928
I2929
I2930
I2931
I2932
I2933
I2934
I2935
I2936
I2937
I2938
I2939
I2940
I2941
I2942
I2943
I2944
I2945
I2946
I2947
I2948
I2949
I2950
I2951
I2952
I2953
I2954
I2955
I2956
I2957
I2958
I2959
I2960
I2961
I2962
I2963
I2964
I2965
I2966
I2967
I2968
I2969
I2970
I2971
I2972
I2973
I2974
I2975
I2976
I2977
I2978
I2979
I2980
I2981
I2982
I2983
I2984
I2985
I2986
I2987
I2988
I2989
I2990
I2991
I2992
I2993
I2994
I2995
I2996
I2997
I2998
I2999
I3000
I3001
I3002
I3003
I3004
I3005
I3006
I3007
I3008
I3009
I3010
I3011
I3012
I3013
I3014
I3015
I3016
I3017
I3018
I3019
I3020
I3021
I3022
I3023
I3024
I3025
I3026
I3027
I3028
I3029
I3030
I3031
I3032
I3033
I3034
I3035
I3036
I3037
I3038
I3039
I3040
I3041
I3042
I3043
I3044
I3045
I3046
I3047
I3048
I3049
I3050
I3051
I3052
I3053
I3054
I3055
I3056
I3057
I3058
I3059
I3060
I3061
I3062
I3063
I3064
I3065
I3066
I3067
I3068
I3069
I3070
I3071
I3072
I3073
I3074
I3075
I3076
I3077
I3078
I3079
I3080
I3081
I3082
I3083
I3084
I3085
I3086
I3087
I3088
I3089
I3090
I3091
I3092
I3093
I3094
I3095
I3096
I3097
I3098
I3099
I3100
I3101
I3102
I3103
I3104
I3105
I3106
I3107
I3108
I3109
I3110
I3111
I3112
I3113
I3114
I3115
I3116
I3117
I3118
I3119
I3120
I3121
I3122
I3123
I3124
I3125
I3126
I3127
I3128
I3129
I3130
I3131
I3132
I3133
I3134
I3135
I3136
I3137
I3138
I3139
I3140
I3141
I3142
I3143
I3144
I3145
I3146
I3147
I3148
I3149
I3150
I3151
I3152
I3153
I3154
I3155
I3156
I3157
I3158
I3159
I3160
I3161
I3162
I3163
I3164
I3165
I3166
I3167
I3168
I3169
I3170
I3171
I3172
I3173
I3174
I3175
I3176
I3177
I3178
I3179
I3180
I3181
I3182
I3183
I3184
I3185
I3186
I3187
I3188
I3189
I3190
I3191
I3192
I3193
I3194
I3195
I3196
I3197
I3198
I3199
I3200
I3201
I3202
I3203
I3204
I3205
I3206
I3207
I3208
I3209
I3210
I3211
I3212
I3213
I3214
I3215
I3216
I3217
I3218
I3219
I3220
I3221
I3222
I3223
I3224
I3225
I3226
I3227
I3228
I3229
I3230
I3231
I3232
I3233
I3234
I3235
I3236
I3237
I3238
I3239
I3240
I3241
I3242
I3243
I3244
I3245
I3246
I3247
I3248
I3249
I3250
I3251
I3252
I3253
I3254
I3255
I3256
I3257
I3258
I3259
I3260
I3261
I3262
I3263
I3264
I3265
I3266
I3267
I3268
I3269
I3270
I3271
I3272
I3273
I3274
I3275
I3276
I3277
I3278
I3279
I3280
I3281
I3282
I3283
I3284
I3285
I3286
I3287
I3288
I3289
I3290
I3291
I3292
I3293
I3294
I3295
I3296
I3297
I3298
I3299
I3300
I3301
I3302
I3303
I3304
I3305
I3306
I3307
I3308
I3309
I3310
I3311
I3312
I3313
I3314
I3315
I3316
I3317
I3318
I3319
I3320
I3321
I3322
I3323
I3324
I3325
I3326
I3327
I3328
I3329
I3330
I3331
I3332
I3333
I3334
I3335
I3336
I3337
I3338
I3339
I3340
I3341
I3342
I3343
I3344
I3345
I3346
I3347
I3348
I3349
I3350
I3351
I3352
I3353
I3354
I3355
I3356
I3357
I3358
I3359
I3360
I3361
I3362
I3363
I3364
I3365
I3366
I3367
I3368
I3369
I3370
I3371
I3372
I3373
I3374
I3375
I3376
I3377
I3378
I3379
I3380
I3381
I3382
I3383
I3384
I3385
I3386
I3387
I3388
I3389
I3390
I3391
I3392
I3393
I3394
I3395
I3396
I3397
I3398
I3399
I3400
I3401
I3402
I3403
I3404
I3405
I3406
I3407
I3408
I3409
I3410
I3411
I3412
I3413
I3414
I3415
I3416
I3417
I3418
I3419
I3420
I3421
I3422
I3423
I3424
I3425
I3426
I3427
I3428
I3429
I3430
I3431
I3432
I3433
I3434
I3435
I3436
I3437
I3438
I3439
I3440
I3441
I3442
I3443
I3444
I3445
I3446
I3447
I3448
I3449
I3450
I3451
I3452
I3453
I3454
I3455
I3456
I3457
I3458
I3459
I3460
I3461
I3462
I3463
I3464
I3465
I3466
I3467
I3468
I3469
I3470
I3471
I3472
I3473
I3474
I3475
I3476
I3477
I3478
I3479
I3480
I3481
I3482
I3483
I3484
I3485
I3486
I3487
I3488
I3489
I3490
I3491
I3492
I3493
I3494
I3495
I3496
I3497
I3498
I3499
I3500
I3501
I3502
I3503
I3504
I3505
I3506
I3507
I3508
I3509
I3510
I3511
I3512
I3513
I3514
I3515
I3516
I3517
I3518
I3519
I3520
I3521
I3522
I3523
I3524
I3525
I3526
I3527
I3528
I3529
I3530
I3531
I3532
I3533
I3534
I3535
I3536
I3537
I3538
I3539
I3540
I3541
I3542
I3543
I3544
I3545
I3546
I3547
I3548
I3549
I3550
I3551
I3552
I3553
I3554
I3555
I3556
I3557
I3558
I3559
I3560
I3561
I3562
I3563
I3564
I3565
I3566
I3567
I3568
I3569
I3570
I3571
I3572
I3573
I3574
I3575
I3576
I3577
I3578
I3579
I3580
I3581
I3582
I3583
I3584
I3585
I3586
I3587
I3588
I3589
I3590
I3591
I3592
I3593
I3594
I3595
I3596
I3597
I3598
I3599
I3600
I3601
I3602
I3603
I3604
I3605
I3606
I3607
I3608
I3609
I3610
I3611
I3612
I3613
I3614
I3615
I3616
I3617
I3618
I3619
I3620
I3621
I3622
I3623
I3624
I3625
I3626
I3627
I3628
I3629
I3630
I3631
I3632
I3633
I3634
I3635
I3636
I3637
I3638
I3639
I3640
I3641
I3642
I3643
I3644
I3645
I3646
I3647
I3648
I3649
I3650
I3651
I3652
I3653
I3654
I3655
I3656
I3657
I3658
I3659
I3660
I3661
I3662
I3663
I3664
I3665
I3666
I3667
I3668
I3669
I3670
I3671
I3672
I3673
I3674
I3675
I3676
I3677
I3678
I3679
I3680
I3681
I3682
I3683
I3684
I3685
I3686
I3687
I3688
I3689
I3690
I3691
I3692
I3693
I3694
I3695
I3696
I3697
I3698
I3699
I3700
I3701
I3702
I3703
I3704
I3705
I3706
I3707
I3708
I3709
I3710
I3711
I3712
I3713
I3714
I3715
I3716
I3717
I3718
I3719
I3720
I3721
I3722
I3723
I3724
I3725
I3726
I3727
I3728
I3729
I3730
I3731
I3732
I3733
I3734
I3735
I3736
I3737
I3738
I3739
I3740
I3741
I3742
I3743
I3744
I3745
I3746
I3747
I3748
I3749
I3750
I3751
I3752
I3753
I3754
I3755
I3756
I3757
I3758
I3759
I3760
tp1
tp2
Rp3
.